target datalayout = "e-m:e-p270:32:32-p271:32:32-p272:64:64-i64:64-i128:128-f80:128-n8:16:32:64-S128"
target triple = "x86_64-unknown-linux-gnu"

%struct.grpc_closure = type { %union.anon, ptr, ptr, %union.anon.0 }
%union.anon = type { ptr }
%union.anon.0 = type { i64 }
%"struct.grpc_core::BatchBuilder::Batch" = type <{ %struct.grpc_transport_stream_op_batch, ptr, ptr, ptr, ptr, %"class.grpc_core::RefCountedPtr", ptr, i8, [7 x i8] }>
%struct.grpc_transport_stream_op_batch = type { ptr, ptr, i8, %struct.grpc_handler_private_op_data }
%struct.grpc_handler_private_op_data = type { ptr, %struct.grpc_closure }
%"class.grpc_core::RefCountedPtr" = type { ptr }
%"class.grpc_core::CallContext" = type <{ %struct.grpc_call_stats, ptr, double, i8, [7 x i8] }>
%struct.grpc_call_stats = type { %struct.grpc_transport_stream_stats, %struct.gpr_timespec }
%struct.grpc_transport_stream_stats = type { %struct.grpc_transport_one_way_stats, %struct.grpc_transport_one_way_stats, %struct.gpr_timespec }
%struct.grpc_transport_one_way_stats = type { i64, i64, i64 }
%struct.gpr_timespec = type { i64, i32, i32 }
%struct.grpc_stream_refcount = type { %"class.grpc_core::RefCount", %struct.grpc_closure }
%"class.grpc_core::RefCount" = type { %"struct.std::atomic.108" }
%"struct.std::atomic.108" = type { %"struct.std::__atomic_base.109" }
%"struct.std::__atomic_base.109" = type { i64 }
%"class.grpc_core::Party" = type { %"class.grpc_core::Activity", %"class.grpc_core::Wakeable", %"class.grpc_core::PartySyncUsingAtomics", ptr, i8, [16 x %"struct.std::atomic.5"] }
%"class.grpc_core::Activity" = type { %"class.grpc_core::Orphanable" }
%"class.grpc_core::Orphanable" = type { ptr }
%"class.grpc_core::Wakeable" = type { ptr }
%"class.grpc_core::PartySyncUsingAtomics" = type { %"struct.std::atomic.3" }
%"struct.std::atomic.3" = type { %"struct.std::__atomic_base.4" }
%"struct.std::__atomic_base.4" = type { i64 }
%"struct.std::atomic.5" = type { %"struct.std::__atomic_base.6" }
%"struct.std::__atomic_base.6" = type { ptr }

@_ZN9grpc_core8Activity19g_current_activity_E = external thread_local global ptr, align 8
@.str.15 = private unnamed_addr constant [118 x i8] c"generated/home/dtcxzyw/WorkSpace/Projects/compilers/llvm-opt-benchmark/bench/grpc/grpc/src/core/lib/promise/context.h\00", align 1
@.str.16 = private unnamed_addr constant [13 x i8] c"p != nullptr\00", align 1
@_ZN9grpc_core14promise_detail7ContextINS_11CallContextEE8current_E = linkonce_odr thread_local global ptr null, comdat, align 8

; Function Attrs: mustprogress nounwind uwtable
define linkonce_odr void @_ZN9grpc_core21PartySyncUsingAtomics17IncrementRefCountEv(ptr noundef nonnull align 8 dereferenceable(8) %this) #4 comdat align 2 {
entry:
  %this.addr.i = alloca ptr, align 8
  %__i.addr.i = alloca i64, align 8
  %__m.addr.i = alloca i32, align 4
  %.atomictmp.i = alloca i64, align 8
  %atomic-temp.i = alloca i64, align 8
  %this.addr = alloca ptr, align 8
  store ptr %this, ptr %this.addr, align 8
  %this1 = load ptr, ptr %this.addr, align 8
  %state_ = getelementptr inbounds %"class.grpc_core::PartySyncUsingAtomics", ptr %this1, i32 0, i32 0
  store ptr %state_, ptr %this.addr.i, align 8
  store i64 1099511627776, ptr %__i.addr.i, align 8
  store i32 0, ptr %__m.addr.i, align 4
  %this1.i = load ptr, ptr %this.addr.i, align 8
  %0 = load i32, ptr %__m.addr.i, align 4
  %1 = load i64, ptr %__i.addr.i, align 8
  store i64 %1, ptr %.atomictmp.i, align 8
  switch i32 %0, label %monotonic.i [
    i32 1, label %acquire.i
    i32 2, label %acquire.i
    i32 3, label %release.i
    i32 4, label %acqrel.i
    i32 5, label %seqcst.i
  ]

monotonic.i:                                      ; preds = %entry
  %2 = load i64, ptr %.atomictmp.i, align 8
  %3 = atomicrmw add ptr %this1.i, i64 %2 monotonic, align 8
  store i64 %3, ptr %atomic-temp.i, align 8
  br label %_ZNSt13__atomic_baseImE9fetch_addEmSt12memory_order.exit

acquire.i:                                        ; preds = %entry, %entry
  %4 = load i64, ptr %.atomictmp.i, align 8
  %5 = atomicrmw add ptr %this1.i, i64 %4 acquire, align 8
  store i64 %5, ptr %atomic-temp.i, align 8
  br label %_ZNSt13__atomic_baseImE9fetch_addEmSt12memory_order.exit

release.i:                                        ; preds = %entry
  %6 = load i64, ptr %.atomictmp.i, align 8
  %7 = atomicrmw add ptr %this1.i, i64 %6 release, align 8
  store i64 %7, ptr %atomic-temp.i, align 8
  br label %_ZNSt13__atomic_baseImE9fetch_addEmSt12memory_order.exit

acqrel.i:                                         ; preds = %entry
  %8 = load i64, ptr %.atomictmp.i, align 8
  %9 = atomicrmw add ptr %this1.i, i64 %8 acq_rel, align 8
  store i64 %9, ptr %atomic-temp.i, align 8
  br label %_ZNSt13__atomic_baseImE9fetch_addEmSt12memory_order.exit

seqcst.i:                                         ; preds = %entry
  %10 = load i64, ptr %.atomictmp.i, align 8
  %11 = atomicrmw add ptr %this1.i, i64 %10 seq_cst, align 8
  store i64 %11, ptr %atomic-temp.i, align 8
  br label %_ZNSt13__atomic_baseImE9fetch_addEmSt12memory_order.exit

_ZNSt13__atomic_baseImE9fetch_addEmSt12memory_order.exit: ; preds = %seqcst.i, %acqrel.i, %release.i, %acquire.i, %monotonic.i
  ret void
}

; Function Attrs: mustprogress nounwind uwtable
define linkonce_odr void @_ZN9grpc_core8RefCount10RefNonZeroEv(ptr noundef nonnull align 8 dereferenceable(8) %this) #4 comdat align 2 {
entry:
  %this.addr.i = alloca ptr, align 8
  %__i.addr.i = alloca i64, align 8
  %__m.addr.i = alloca i32, align 4
  %.atomictmp.i = alloca i64, align 8
  %atomic-temp.i = alloca i64, align 8
  %this.addr = alloca ptr, align 8
  store ptr %this, ptr %this.addr, align 8
  %this1 = load ptr, ptr %this.addr, align 8
  %value_ = getelementptr inbounds %"class.grpc_core::RefCount", ptr %this1, i32 0, i32 0
  store ptr %value_, ptr %this.addr.i, align 8
  store i64 1, ptr %__i.addr.i, align 8
  store i32 0, ptr %__m.addr.i, align 4
  %this1.i = load ptr, ptr %this.addr.i, align 8
  %0 = load i32, ptr %__m.addr.i, align 4
  %1 = load i64, ptr %__i.addr.i, align 8
  store i64 %1, ptr %.atomictmp.i, align 8
  switch i32 %0, label %monotonic.i [
    i32 1, label %acquire.i
    i32 2, label %acquire.i
    i32 3, label %release.i
    i32 4, label %acqrel.i
    i32 5, label %seqcst.i
  ]

monotonic.i:                                      ; preds = %entry
  %2 = load i64, ptr %.atomictmp.i, align 8
  %3 = atomicrmw add ptr %this1.i, i64 %2 monotonic, align 8
  store i64 %3, ptr %atomic-temp.i, align 8
  br label %_ZNSt13__atomic_baseIlE9fetch_addElSt12memory_order.exit

acquire.i:                                        ; preds = %entry, %entry
  %4 = load i64, ptr %.atomictmp.i, align 8
  %5 = atomicrmw add ptr %this1.i, i64 %4 acquire, align 8
  store i64 %5, ptr %atomic-temp.i, align 8
  br label %_ZNSt13__atomic_baseIlE9fetch_addElSt12memory_order.exit

release.i:                                        ; preds = %entry
  %6 = load i64, ptr %.atomictmp.i, align 8
  %7 = atomicrmw add ptr %this1.i, i64 %6 release, align 8
  store i64 %7, ptr %atomic-temp.i, align 8
  br label %_ZNSt13__atomic_baseIlE9fetch_addElSt12memory_order.exit

acqrel.i:                                         ; preds = %entry
  %8 = load i64, ptr %.atomictmp.i, align 8
  %9 = atomicrmw add ptr %this1.i, i64 %8 acq_rel, align 8
  store i64 %9, ptr %atomic-temp.i, align 8
  br label %_ZNSt13__atomic_baseIlE9fetch_addElSt12memory_order.exit

seqcst.i:                                         ; preds = %entry
  %10 = load i64, ptr %.atomictmp.i, align 8
  %11 = atomicrmw add ptr %this1.i, i64 %10 seq_cst, align 8
  store i64 %11, ptr %atomic-temp.i, align 8
  br label %_ZNSt13__atomic_baseIlE9fetch_addElSt12memory_order.exit

_ZNSt13__atomic_baseIlE9fetch_addElSt12memory_order.exit: ; preds = %seqcst.i, %acqrel.i, %release.i, %acquire.i, %monotonic.i
  ret void
}

; Function Attrs: mustprogress nounwind uwtable
define linkonce_odr noundef ptr @_ZN9grpc_core14promise_detail7ContextINS_11CallContextEE3getEv() #4 comdat align 2 {
entry:
  %0 = call align 8 ptr @llvm.threadlocal.address.p0(ptr align 8 @_ZN9grpc_core14promise_detail7ContextINS_11CallContextEE8current_E)
  %1 = load ptr, ptr %0, align 8
  ret ptr %1
}

; Function Attrs: mustprogress nounwind uwtable
define linkonce_odr void @_ZN9grpc_core13RefCountedPtrINS_5PartyEEC2IS1_EEPT_(ptr noundef nonnull align 8 dereferenceable(8) %this, ptr noundef %value) unnamed_addr #4 comdat align 2 {
entry:
  %this.addr = alloca ptr, align 8
  %value.addr = alloca ptr, align 8
  store ptr %this, ptr %this.addr, align 8
  store ptr %value, ptr %value.addr, align 8
  %this1 = load ptr, ptr %this.addr, align 8
  %value_ = getelementptr inbounds %"class.grpc_core::RefCountedPtr", ptr %this1, i32 0, i32 0
  %0 = load ptr, ptr %value.addr, align 8
  store ptr %0, ptr %value_, align 8
  ret void
}

; Function Attrs: mustprogress uwtable
define linkonce_odr void @_ZN9grpc_core5Party17IncrementRefCountEv(ptr noundef nonnull align 8 dereferenceable(168) %this) #5 comdat align 2 {
entry:
  %this.addr = alloca ptr, align 8
  store ptr %this, ptr %this.addr, align 8
  %this1 = load ptr, ptr %this.addr, align 8
  %sync_ = getelementptr inbounds %"class.grpc_core::Party", ptr %this1, i32 0, i32 2
  call void @_ZN9grpc_core21PartySyncUsingAtomics17IncrementRefCountEv(ptr noundef nonnull align 8 dereferenceable(8) %sync_)
  ret void
}

; Function Attrs: uwtable
define linkonce_odr hidden noundef ptr @_ZTWN9grpc_core8Activity19g_current_activity_E() #10 comdat {
  br i1 icmp ne (ptr @_ZTHN9grpc_core8Activity19g_current_activity_E, ptr null), label %1, label %2

1:                                                ; preds = %0
  call void @_ZTHN9grpc_core8Activity19g_current_activity_E()
  br label %2

2:                                                ; preds = %1, %0
  %3 = call align 8 ptr @llvm.threadlocal.address.p0(ptr align 8 @_ZN9grpc_core8Activity19g_current_activity_E)
  ret ptr %3
}

; Function Attrs: mustprogress nounwind uwtable
define linkonce_odr void @_ZN28grpc_handler_private_op_dataC2Ev(ptr noundef nonnull align 8 dereferenceable(40) %this) unnamed_addr #4 comdat align 2 {
entry:
  %this.addr = alloca ptr, align 8
  store ptr %this, ptr %this.addr, align 8
  %this1 = load ptr, ptr %this.addr, align 8
  %extra_arg = getelementptr inbounds %struct.grpc_handler_private_op_data, ptr %this1, i32 0, i32 0
  store ptr null, ptr %extra_arg, align 8
  %closure2 = getelementptr inbounds %struct.grpc_handler_private_op_data, ptr %this1, i32 0, i32 1
  call void @llvm.memset.p0.i64(ptr align 8 %closure2, i8 0, i64 32, i1 false)
  ret void
}

; Function Attrs: mustprogress uwtable
define linkonce_odr void @_Z15grpc_stream_refP20grpc_stream_refcount(ptr noundef %refcount) #5 comdat {
entry:
  %refcount.addr = alloca ptr, align 8
  store ptr %refcount, ptr %refcount.addr, align 8
  %0 = load ptr, ptr %refcount.addr, align 8
  %refs = getelementptr inbounds %struct.grpc_stream_refcount, ptr %0, i32 0, i32 0
  call void @_ZN9grpc_core8RefCount10RefNonZeroEv(ptr noundef nonnull align 8 dereferenceable(8) %refs)
  ret void
}

; Function Attrs: mustprogress nounwind uwtable
define linkonce_odr noundef zeroext i1 @_ZNK9grpc_core11CallContext6tracedEv(ptr noundef nonnull align 8 dereferenceable(97) %this) #4 comdat align 2 {
entry:
  %this.addr = alloca ptr, align 8
  store ptr %this, ptr %this.addr, align 8
  %this1 = load ptr, ptr %this.addr, align 8
  %traced_ = getelementptr inbounds %"class.grpc_core::CallContext", ptr %this1, i32 0, i32 3
  %0 = load i8, ptr %traced_, align 8
  %tobool = trunc i8 %0 to i1
  ret i1 %tobool
}

; Function Attrs: mustprogress uwtable
define linkonce_odr noundef ptr @_ZN9grpc_core10GetContextINS_11CallContextEEEPT_v() #5 comdat {
entry:
  %p = alloca ptr, align 8
  %call = call noundef ptr @_ZN9grpc_core14promise_detail7ContextINS_11CallContextEE3getEv()
  store ptr %call, ptr %p, align 8
  br label %do.body

do.body:                                          ; preds = %entry
  %0 = load ptr, ptr %p, align 8
  %cmp = icmp ne ptr %0, null
  %lnot = xor i1 %cmp, true
  br i1 %lnot, label %if.then, label %if.end

if.then:                                          ; preds = %do.body
  call void @gpr_assertion_failed(ptr noundef @.str.15, i32 noundef 80, ptr noundef @.str.16) #15
  unreachable

if.end:                                           ; preds = %do.body
  br label %do.end

do.end:                                           ; preds = %if.end
  %1 = load ptr, ptr %p, align 8
  ret ptr %1
}

; Function Attrs: mustprogress uwtable
define linkonce_odr void @_ZN9grpc_core5Party3RefEv(ptr noalias sret(%"class.grpc_core::RefCountedPtr") align 8 %agg.result, ptr noundef nonnull align 8 dereferenceable(168) %this) #5 comdat align 2 {
entry:
  %result.ptr = alloca ptr, align 8
  %this.addr = alloca ptr, align 8
  store ptr %agg.result, ptr %result.ptr, align 8
  store ptr %this, ptr %this.addr, align 8
  %this1 = load ptr, ptr %this.addr, align 8
  call void @_ZN9grpc_core5Party17IncrementRefCountEv(ptr noundef nonnull align 8 dereferenceable(168) %this1)
  call void @_ZN9grpc_core13RefCountedPtrINS_5PartyEEC2IS1_EEPT_(ptr noundef nonnull align 8 dereferenceable(8) %agg.result, ptr noundef %this1)
  ret void
}

; Function Attrs: mustprogress uwtable
define linkonce_odr noundef ptr @_ZN9grpc_core8Activity7currentEv() #5 comdat align 2 {
entry:
  %0 = call ptr @_ZTWN9grpc_core8Activity19g_current_activity_E()
  %1 = load ptr, ptr %0, align 8
  ret ptr %1
}

; Function Attrs: mustprogress uwtable
define linkonce_odr void @_ZN30grpc_transport_stream_op_batchC2Ev(ptr noundef nonnull align 8 dereferenceable(64) %this) unnamed_addr #5 comdat align 2 {
entry:
  %this.addr = alloca ptr, align 8
  store ptr %this, ptr %this.addr, align 8
  %this1 = load ptr, ptr %this.addr, align 8
  %on_complete = getelementptr inbounds %struct.grpc_transport_stream_op_batch, ptr %this1, i32 0, i32 0
  store ptr null, ptr %on_complete, align 8
  %payload = getelementptr inbounds %struct.grpc_transport_stream_op_batch, ptr %this1, i32 0, i32 1
  store ptr null, ptr %payload, align 8
  %send_initial_metadata = getelementptr inbounds %struct.grpc_transport_stream_op_batch, ptr %this1, i32 0, i32 2
  %bf.load = load i8, ptr %send_initial_metadata, align 8
  %bf.clear = and i8 %bf.load, -2
  %bf.set = or i8 %bf.clear, 0
  store i8 %bf.set, ptr %send_initial_metadata, align 8
  %send_trailing_metadata = getelementptr inbounds %struct.grpc_transport_stream_op_batch, ptr %this1, i32 0, i32 2
  %bf.load2 = load i8, ptr %send_trailing_metadata, align 8
  %bf.clear3 = and i8 %bf.load2, -3
  %bf.set4 = or i8 %bf.clear3, 0
  store i8 %bf.set4, ptr %send_trailing_metadata, align 8
  %send_message = getelementptr inbounds %struct.grpc_transport_stream_op_batch, ptr %this1, i32 0, i32 2
  %bf.load5 = load i8, ptr %send_message, align 8
  %bf.clear6 = and i8 %bf.load5, -5
  %bf.set7 = or i8 %bf.clear6, 0
  store i8 %bf.set7, ptr %send_message, align 8
  %recv_initial_metadata = getelementptr inbounds %struct.grpc_transport_stream_op_batch, ptr %this1, i32 0, i32 2
  %bf.load8 = load i8, ptr %recv_initial_metadata, align 8
  %bf.clear9 = and i8 %bf.load8, -9
  %bf.set10 = or i8 %bf.clear9, 0
  store i8 %bf.set10, ptr %recv_initial_metadata, align 8
  %recv_message = getelementptr inbounds %struct.grpc_transport_stream_op_batch, ptr %this1, i32 0, i32 2
  %bf.load11 = load i8, ptr %recv_message, align 8
  %bf.clear12 = and i8 %bf.load11, -17
  %bf.set13 = or i8 %bf.clear12, 0
  store i8 %bf.set13, ptr %recv_message, align 8
  %recv_trailing_metadata = getelementptr inbounds %struct.grpc_transport_stream_op_batch, ptr %this1, i32 0, i32 2
  %bf.load14 = load i8, ptr %recv_trailing_metadata, align 8
  %bf.clear15 = and i8 %bf.load14, -33
  %bf.set16 = or i8 %bf.clear15, 0
  store i8 %bf.set16, ptr %recv_trailing_metadata, align 8
  %cancel_stream = getelementptr inbounds %struct.grpc_transport_stream_op_batch, ptr %this1, i32 0, i32 2
  %bf.load17 = load i8, ptr %cancel_stream, align 8
  %bf.clear18 = and i8 %bf.load17, -65
  %bf.set19 = or i8 %bf.clear18, 0
  store i8 %bf.set19, ptr %cancel_stream, align 8
  %is_traced = getelementptr inbounds %struct.grpc_transport_stream_op_batch, ptr %this1, i32 0, i32 2
  %bf.load20 = load i8, ptr %is_traced, align 8
  %bf.clear21 = and i8 %bf.load20, 127
  %bf.set22 = or i8 %bf.clear21, 0
  store i8 %bf.set22, ptr %is_traced, align 8
  %handler_private = getelementptr inbounds %struct.grpc_transport_stream_op_batch, ptr %this1, i32 0, i32 3
  call void @_ZN28grpc_handler_private_op_dataC2Ev(ptr noundef nonnull align 8 dereferenceable(40) %handler_private)
  ret void
}

; Function Attrs: mustprogress uwtable
define void @_ZN9grpc_core12BatchBuilder5BatchC2EP38grpc_transport_stream_op_batch_payloadP20grpc_stream_refcount(ptr noundef nonnull align 8 dereferenceable(120) %this, ptr noundef %payload, ptr noundef %stream_refcount) unnamed_addr #5 align 2 personality ptr @__gxx_personality_v0 {
entry:
  %this.addr = alloca ptr, align 8
  %payload.addr = alloca ptr, align 8
  %stream_refcount.addr = alloca ptr, align 8
  %exn.slot = alloca ptr, align 8
  %ehselector.slot = alloca i32, align 4
  store ptr %this, ptr %this.addr, align 8
  store ptr %payload, ptr %payload.addr, align 8
  store ptr %stream_refcount, ptr %stream_refcount.addr, align 8
  %this1 = load ptr, ptr %this.addr, align 8
  %batch = getelementptr inbounds %"struct.grpc_core::BatchBuilder::Batch", ptr %this1, i32 0, i32 0
  call void @_ZN30grpc_transport_stream_op_batchC2Ev(ptr noundef nonnull align 8 dereferenceable(64) %batch)
  %pending_receive_message = getelementptr inbounds %"struct.grpc_core::BatchBuilder::Batch", ptr %this1, i32 0, i32 1
  store ptr null, ptr %pending_receive_message, align 8
  %pending_receive_initial_metadata = getelementptr inbounds %"struct.grpc_core::BatchBuilder::Batch", ptr %this1, i32 0, i32 2
  store ptr null, ptr %pending_receive_initial_metadata, align 8
  %pending_receive_trailing_metadata = getelementptr inbounds %"struct.grpc_core::BatchBuilder::Batch", ptr %this1, i32 0, i32 3
  store ptr null, ptr %pending_receive_trailing_metadata, align 8
  %pending_sends = getelementptr inbounds %"struct.grpc_core::BatchBuilder::Batch", ptr %this1, i32 0, i32 4
  store ptr null, ptr %pending_sends, align 8
  %party = getelementptr inbounds %"struct.grpc_core::BatchBuilder::Batch", ptr %this1, i32 0, i32 5
  %call = call noundef ptr @_ZN9grpc_core8Activity7currentEv()
  call void @_ZN9grpc_core5Party3RefEv(ptr sret(%"class.grpc_core::RefCountedPtr") align 8 %party, ptr noundef nonnull align 8 dereferenceable(168) %call)
  %stream_refcount2 = getelementptr inbounds %"struct.grpc_core::BatchBuilder::Batch", ptr %this1, i32 0, i32 6
  %0 = load ptr, ptr %stream_refcount.addr, align 8
  store ptr %0, ptr %stream_refcount2, align 8
  %refs = getelementptr inbounds %"struct.grpc_core::BatchBuilder::Batch", ptr %this1, i32 0, i32 7
  store i8 0, ptr %refs, align 8
  %1 = load ptr, ptr %payload.addr, align 8
  %batch3 = getelementptr inbounds %"struct.grpc_core::BatchBuilder::Batch", ptr %this1, i32 0, i32 0
  %payload4 = getelementptr inbounds %struct.grpc_transport_stream_op_batch, ptr %batch3, i32 0, i32 1
  store ptr %1, ptr %payload4, align 8
  %call5 = invoke noundef ptr @_ZN9grpc_core10GetContextINS_11CallContextEEEPT_v()
          to label %invoke.cont unwind label %lpad

invoke.cont:                                      ; preds = %entry
  %call7 = invoke noundef zeroext i1 @_ZNK9grpc_core11CallContext6tracedEv(ptr noundef nonnull align 8 dereferenceable(97) %call5)
          to label %invoke.cont6 unwind label %lpad

invoke.cont6:                                     ; preds = %invoke.cont
  %batch8 = getelementptr inbounds %"struct.grpc_core::BatchBuilder::Batch", ptr %this1, i32 0, i32 0
  %is_traced = getelementptr inbounds %struct.grpc_transport_stream_op_batch, ptr %batch8, i32 0, i32 2
  %2 = zext i1 %call7 to i8
  %bf.load = load i8, ptr %is_traced, align 8
  %bf.shl = shl i8 %2, 7
  %bf.clear = and i8 %bf.load, 127
  %bf.set = or i8 %bf.clear, %bf.shl
  store i8 %bf.set, ptr %is_traced, align 8
  %3 = load ptr, ptr %stream_refcount.addr, align 8
  invoke void @_Z15grpc_stream_refP20grpc_stream_refcount(ptr noundef %3)
          to label %invoke.cont9 unwind label %lpad

invoke.cont9:                                     ; preds = %invoke.cont6
  ret void

lpad:                                             ; preds = %invoke.cont6, %invoke.cont, %entry
  %4 = landingpad { ptr, i32 }
          cleanup
  %5 = extractvalue { ptr, i32 } %4, 0
  store ptr %5, ptr %exn.slot, align 8
  %6 = extractvalue { ptr, i32 } %4, 1
  store i32 %6, ptr %ehselector.slot, align 4
  call void @_ZN9grpc_core13RefCountedPtrINS_5PartyEED2Ev(ptr noundef nonnull align 8 dereferenceable(8) %party) #3
  br label %eh.resume

eh.resume:                                        ; preds = %lpad
  %exn = load ptr, ptr %exn.slot, align 8
  %sel = load i32, ptr %ehselector.slot, align 4
  %lpad.val = insertvalue { ptr, i32 } poison, ptr %exn, 0
  %lpad.val10 = insertvalue { ptr, i32 } %lpad.val, i32 %sel, 1
  resume { ptr, i32 } %lpad.val10
}