; Function Attrs: uwtable
define void @_ZN9grpc_core12BatchBuilder5BatchC2EP38grpc_transport_stream_op_batch_payloadP20grpc_stream_refcount(ptr noundef nonnull align 8 dereferenceable(120) %this, ptr noundef %payload, ptr noundef %stream_refcount) unnamed_addr #7 align 2 personality ptr @__gxx_personality_v0 {
entry:
  %handler_private.i = getelementptr inbounds i8, ptr %this, i64 24
  tail call void @llvm.memset.p0.i64(ptr noundef nonnull align 8 dereferenceable(17) %this, i8 0, i64 17, i1 false)
  %party = getelementptr inbounds i8, ptr %this, i64 96
  tail call void @llvm.memset.p0.i64(ptr noundef nonnull align 8 dereferenceable(72) %handler_private.i, i8 0, i64 72, i1 false)
  br i1 icmp ne (ptr @_ZTHN9grpc_core8Activity19g_current_activity_E, ptr null), label %0, label %_ZN9grpc_core8Activity7currentEv.exit

0:                                                ; preds = %entry
  tail call void @_ZTHN9grpc_core8Activity19g_current_activity_E()
  br label %_ZN9grpc_core8Activity7currentEv.exit

_ZN9grpc_core8Activity7currentEv.exit:            ; preds = %entry, %0
  %1 = tail call noundef align 8 ptr @llvm.threadlocal.address.p0(ptr align 8 @_ZN9grpc_core8Activity19g_current_activity_E)
  %2 = load ptr, ptr %1, align 8
  tail call void @llvm.experimental.noalias.scope.decl(metadata !10)
  %sync_.i.i = getelementptr inbounds i8, ptr %2, i64 16
  %3 = atomicrmw add ptr %sync_.i.i, i64 1099511627776 monotonic, align 8, !noalias !10
  store ptr %2, ptr %party, align 8, !alias.scope !10
  %stream_refcount2 = getelementptr inbounds i8, ptr %this, i64 104
  store ptr %stream_refcount, ptr %stream_refcount2, align 8
  %refs = getelementptr inbounds i8, ptr %this, i64 112
  store i8 0, ptr %refs, align 8
  %payload4 = getelementptr inbounds i8, ptr %this, i64 8
  store ptr %payload, ptr %payload4, align 8
  %4 = tail call align 8 ptr @llvm.threadlocal.address.p0(ptr align 8 @_ZN9grpc_core14promise_detail7ContextINS_11CallContextEE8current_E)
  %5 = load ptr, ptr %4, align 8
  %cmp.not.i = icmp eq ptr %5, null
  br i1 %cmp.not.i, label %if.then.i, label %invoke.cont9

if.then.i:                                        ; preds = %_ZN9grpc_core8Activity7currentEv.exit
  invoke void @gpr_assertion_failed(ptr noundef nonnull @.str.15, i32 noundef 80, ptr noundef nonnull @.str.16) #24
          to label %.noexc unwind label %lpad

.noexc:                                           ; preds = %if.then.i
  unreachable

invoke.cont9:                                     ; preds = %_ZN9grpc_core8Activity7currentEv.exit
  %traced_.i = getelementptr inbounds i8, ptr %5, i64 96
  %6 = load i8, ptr %traced_.i, align 8
  %is_traced = getelementptr inbounds i8, ptr %this, i64 16
  %bf.load = load i8, ptr %is_traced, align 8
  %bf.shl = shl i8 %6, 7
  %bf.clear = and i8 %bf.load, 127
  %bf.set = or disjoint i8 %bf.clear, %bf.shl
  store i8 %bf.set, ptr %is_traced, align 8
  %7 = atomicrmw add ptr %stream_refcount, i64 1 monotonic, align 8
  ret void

lpad:                                             ; preds = %if.then.i
  %8 = landingpad { ptr, i32 }
          cleanup
  tail call void @_ZN9grpc_core13RefCountedPtrINS_5PartyEED2Ev(ptr noundef nonnull align 8 dereferenceable(8) %party) #20
  resume { ptr, i32 } %8
}